; Function Attrs: null_pointer_is_valid sspstrong uwtable
define internal fastcc noundef i32 @dissect_rsl_ie_multirate_cntrl(ptr noundef %0, ptr noundef %1, i32 noundef %2, i1 noundef zeroext %3) unnamed_addr #0 {
  br i1 %3, label %7, label %5

5:                                                ; preds = %4
  %6 = tail call zeroext i8 @tvb_get_uint8(ptr noundef %0, i32 noundef %2)
  %.not = icmp eq i8 %6, 55
  br i1 %.not, label %7, label %13

7:                                                ; preds = %5, %4
  %8 = load i32, ptr @ett_ie_multirate_cntrl, align 4
  %9 = tail call ptr @proto_tree_add_subtree(ptr noundef %1, ptr noundef %0, i32 noundef %2, i32 noundef 2, i32 noundef %8, ptr noundef null, ptr noundef nonnull @.str.810)
  %10 = load i32, ptr @hf_rsl_ie_id, align 4
  %11 = tail call ptr @proto_tree_add_item(ptr noundef %9, i32 noundef %10, ptr noundef %0, i32 noundef %2, i32 noundef 1, i32 noundef 0)
  %12 = add i32 %2, 2
  br label %13

13:                                               ; preds = %5, %7
  %.0 = phi i32 [ %12, %7 ], [ %2, %5 ]
  ret i32 %.0
}